; Function Attrs: nounwind uwtable
define internal void @svg_begin_layer(ptr noundef %0, ptr noundef %1, i32 %2, i32 %3) #0 {
  %5 = getelementptr inbounds nuw i8, ptr %0, i64 32
  %6 = load ptr, ptr %5, align 8, !tbaa !50
  %7 = getelementptr inbounds nuw i8, ptr %6, i64 16
  %8 = load ptr, ptr %7, align 8, !tbaa !46
  tail call fastcc void @svg_print_id_class(ptr noundef %0, ptr noundef %1, ptr noundef null, ptr noundef nonnull @.str.22, ptr noundef %8)
  %9 = tail call i32 @gvputs(ptr noundef %0, ptr noundef nonnull @.str.20) #11
  ret void
}